target datalayout = "e-m:e-p270:32:32-p271:32:32-p272:64:64-i64:64-i128:128-f80:128-n8:16:32:64-S128"
target triple = "x86_64-unknown-linux-gnu"

%struct.BlockDriverState = type { i32, i8, i8, i8, i8, i8, ptr, ptr, ptr, %struct.anon.0, i8, [4096 x i8], [4096 x i8], [4096 x i8], [16 x i8], ptr, [4096 x i8], %struct.BlockLimits, i32, i32, i32, i32, [32 x i8], %union.anon, %union.anon.1, %union.anon.2, i32, [16 x %struct.anon.3], ptr, %struct.anon.4, ptr, ptr, %struct.anon.5, ptr, ptr, i32, ptr, i64, i64, %struct.QemuMutex, %struct.anon.6, %struct.Stat64, i32, i32, i32, i32, i32, i32, %struct.QemuMutex, %struct.anon.7, %struct.CoQueue, i8, i32, i8, %struct.CoMutex, ptr, ptr }
%struct.anon.0 = type { ptr }
%struct.BlockLimits = type { i32, i64, i32, i64, i32, i32, i32, i64, i32, i64, i64, i32, i8, i32, i32, i32, i32, i32, i32, i32 }
%union.anon = type { %struct.QTailQLink }
%struct.QTailQLink = type { ptr, ptr }
%union.anon.1 = type { %struct.QTailQLink }
%union.anon.2 = type { %struct.QTailQLink }
%struct.anon.3 = type { ptr }
%struct.anon.4 = type { ptr }
%struct.anon.5 = type { ptr }
%struct.anon.6 = type { ptr }
%struct.Stat64 = type { i64 }
%struct.QemuMutex = type { %union.pthread_mutex_t, i8 }
%union.pthread_mutex_t = type { %struct.__pthread_mutex_s }
%struct.__pthread_mutex_s = type { i32, i32, i32, i32, i32, i16, i16, %struct.__pthread_internal_list }
%struct.__pthread_internal_list = type { ptr, ptr }
%struct.anon.7 = type { ptr }
%struct.CoQueue = type { %struct.anon.8 }
%struct.anon.8 = type { ptr, ptr }
%struct.CoMutex = type { i32, ptr, %struct.anon.9, %struct.anon.9, i32, i32, ptr }
%struct.anon.9 = type { ptr }
%struct.BlockDriver = type { ptr, i32, i8, i8, i8, i8, i8, i8, ptr, ptr, ptr, ptr, ptr, ptr, ptr, ptr, ptr, ptr, ptr, ptr, ptr, ptr, ptr, ptr, ptr, ptr, ptr, ptr, ptr, ptr, ptr, ptr, ptr, ptr, ptr, ptr, ptr, ptr, ptr, ptr, ptr, ptr, ptr, ptr, ptr, ptr, ptr, ptr, ptr, ptr, ptr, ptr, ptr, ptr, ptr, ptr, ptr, ptr, ptr, ptr, ptr, %struct.anon, ptr, ptr, ptr, ptr, ptr, ptr, ptr, ptr, ptr, ptr, ptr, ptr, ptr, ptr, ptr, ptr, ptr, ptr, ptr, ptr, ptr, ptr, ptr, ptr, ptr, ptr, ptr, ptr, ptr, ptr, ptr, ptr, ptr, ptr, ptr, ptr, ptr, ptr, ptr, ptr, ptr, ptr, ptr, ptr, ptr, ptr, ptr, ptr, ptr }
%struct.anon = type { ptr, ptr }
%struct.StreamBlockJob = type { %struct.BlockJob, ptr, ptr, ptr, ptr, ptr, i32, ptr, i8 }
%struct.BlockJob = type { %struct.Job, i32, i64, %struct.RateLimit, ptr, %struct.Notifier, %struct.Notifier, %struct.Notifier, %struct.Notifier, %struct.Notifier, ptr }
%struct.Job = type { ptr, ptr, ptr, i8, i8, ptr, ptr, %struct.ProgressMeter, ptr, i32, i32, %struct.QEMUTimer, i32, i8, i8, i8, i8, i8, i8, i32, ptr, %struct.NotifierList, %struct.NotifierList, %struct.NotifierList, %struct.NotifierList, %struct.NotifierList, %struct.anon.11, ptr, %struct.anon.12 }
%struct.ProgressMeter = type { i64, i64, %struct.QemuMutex }
%struct.QEMUTimer = type { i64, ptr, ptr, ptr, ptr, i32, i32 }
%struct.NotifierList = type { %struct.anon.10 }
%struct.anon.10 = type { ptr }
%struct.anon.11 = type { ptr, ptr }
%struct.anon.12 = type { ptr, ptr }
%struct.RateLimit = type { %struct.QemuMutex, i64, i64, i64, i64, i64 }
%struct.Notifier = type { ptr, %struct.anon.13 }
%struct.anon.13 = type { ptr, ptr }
%struct.BdrvChild = type { ptr, ptr, ptr, i32, ptr, i64, i64, i8, i8, %struct.anon.14, %struct.anon.15 }
%struct.anon.14 = type { ptr, ptr }
%struct.anon.15 = type { ptr, ptr }

@.str = private unnamed_addr constant [22 x i8] c"qemu_in_main_thread()\00", align 1
@.str.1 = private unnamed_addr constant [23 x i8] c"../qemu/block/stream.c\00", align 1
@__PRETTY_FUNCTION__.stream_prepare = private unnamed_addr constant [26 x i8] c"int stream_prepare(Job *)\00", align 1

; Function Attrs: nounwind sspstrong uwtable
define internal ptr @child_bs(ptr noundef %child) #0 {
entry:
  %child.addr = alloca ptr, align 8
  store ptr %child, ptr %child.addr, align 8
  %0 = load ptr, ptr %child.addr, align 8
  %tobool = icmp ne ptr %0, null
  br i1 %tobool, label %cond.true, label %cond.false

cond.true:                                        ; preds = %entry
  %1 = load ptr, ptr %child.addr, align 8
  %bs = getelementptr inbounds %struct.BdrvChild, ptr %1, i32 0, i32 0
  %2 = load ptr, ptr %bs, align 8
  br label %cond.end

cond.false:                                       ; preds = %entry
  br label %cond.end

cond.end:                                         ; preds = %cond.false, %cond.true
  %cond = phi ptr [ %2, %cond.true ], [ null, %cond.false ]
  ret ptr %cond
}

; Function Attrs: nounwind sspstrong uwtable
define internal ptr @bdrv_filter_or_cow_bs(ptr noundef %bs) #0 {
entry:
  %bs.addr = alloca ptr, align 8
  store ptr %bs, ptr %bs.addr, align 8
  br label %do.body

do.body:                                          ; preds = %entry
  br label %do.end

do.end:                                           ; preds = %do.body
  %0 = load ptr, ptr %bs.addr, align 8
  %call = call ptr @bdrv_filter_or_cow_child(ptr noundef %0)
  %call1 = call ptr @child_bs(ptr noundef %call)
  ret ptr %call1
}

; Function Attrs: nounwind sspstrong uwtable
define internal ptr @bdrv_cow_bs(ptr noundef %bs) #0 {
entry:
  %bs.addr = alloca ptr, align 8
  store ptr %bs, ptr %bs.addr, align 8
  br label %do.body

do.body:                                          ; preds = %entry
  br label %do.end

do.end:                                           ; preds = %do.body
  %0 = load ptr, ptr %bs.addr, align 8
  %call = call ptr @bdrv_cow_child(ptr noundef %0)
  %call1 = call ptr @child_bs(ptr noundef %call)
  ret ptr %call1
}

; Function Attrs: nounwind sspstrong uwtable
define internal i32 @stream_prepare(ptr noundef %job) #0 {
entry:
  %job.addr = alloca ptr, align 8
  %s = alloca ptr, align 8
  %__mptr = alloca ptr, align 8
  %tmp = alloca ptr, align 8
  %unfiltered_bs = alloca ptr, align 8
  %unfiltered_bs_cow = alloca ptr, align 8
  %base = alloca ptr, align 8
  %unfiltered_base = alloca ptr, align 8
  %local_err = alloca ptr, align 8
  %ret = alloca i32, align 4
  %base_id = alloca ptr, align 8
  %base_fmt = alloca ptr, align 8
  store ptr %job, ptr %job.addr, align 8
  %0 = load ptr, ptr %job.addr, align 8
  store ptr %0, ptr %__mptr, align 8
  %1 = load ptr, ptr %__mptr, align 8
  %add.ptr = getelementptr i8, ptr %1, i64 0
  store ptr %add.ptr, ptr %tmp, align 8
  %2 = load ptr, ptr %tmp, align 8
  store ptr %2, ptr %s, align 8
  store ptr null, ptr %local_err, align 8
  store i32 0, ptr %ret, align 4
  br label %do.body

do.body:                                          ; preds = %entry
  %call = call zeroext i1 @qemu_in_main_thread()
  br i1 %call, label %if.then, label %if.else

if.then:                                          ; preds = %do.body
  br label %if.end

if.else:                                          ; preds = %do.body
  call void @__assert_fail(ptr noundef @.str, ptr noundef @.str.1, i32 noundef 63, ptr noundef @__PRETTY_FUNCTION__.stream_prepare) #4
  unreachable

if.end:                                           ; preds = %if.then
  br label %do.end

do.end:                                           ; preds = %if.end
  call void @bdrv_graph_rdlock_main_loop()
  %3 = load ptr, ptr %s, align 8
  %target_bs = getelementptr inbounds %struct.StreamBlockJob, ptr %3, i32 0, i32 5
  %4 = load ptr, ptr %target_bs, align 8
  %call1 = call ptr @bdrv_skip_filters(ptr noundef %4)
  store ptr %call1, ptr %unfiltered_bs, align 8
  %5 = load ptr, ptr %unfiltered_bs, align 8
  %call2 = call ptr @bdrv_cow_bs(ptr noundef %5)
  store ptr %call2, ptr %unfiltered_bs_cow, align 8
  call void @bdrv_graph_rdunlock_main_loop()
  %6 = load ptr, ptr %s, align 8
  %cor_filter_bs = getelementptr inbounds %struct.StreamBlockJob, ptr %6, i32 0, i32 4
  %7 = load ptr, ptr %cor_filter_bs, align 8
  call void @bdrv_cor_filter_drop(ptr noundef %7)
  %8 = load ptr, ptr %s, align 8
  %cor_filter_bs3 = getelementptr inbounds %struct.StreamBlockJob, ptr %8, i32 0, i32 4
  store ptr null, ptr %cor_filter_bs3, align 8
  %9 = load ptr, ptr %unfiltered_bs, align 8
  call void @bdrv_drained_begin(ptr noundef %9)
  %10 = load ptr, ptr %unfiltered_bs_cow, align 8
  %tobool = icmp ne ptr %10, null
  br i1 %tobool, label %if.then4, label %if.end5

if.then4:                                         ; preds = %do.end
  %11 = load ptr, ptr %unfiltered_bs_cow, align 8
  call void @bdrv_ref(ptr noundef %11)
  %12 = load ptr, ptr %unfiltered_bs_cow, align 8
  call void @bdrv_drained_begin(ptr noundef %12)
  br label %if.end5

if.end5:                                          ; preds = %if.then4, %do.end
  call void @bdrv_graph_rdlock_main_loop()
  %13 = load ptr, ptr %s, align 8
  %above_base = getelementptr inbounds %struct.StreamBlockJob, ptr %13, i32 0, i32 3
  %14 = load ptr, ptr %above_base, align 8
  %call6 = call ptr @bdrv_filter_or_cow_bs(ptr noundef %14)
  store ptr %call6, ptr %base, align 8
  %15 = load ptr, ptr %base, align 8
  %call7 = call ptr @bdrv_skip_filters(ptr noundef %15)
  store ptr %call7, ptr %unfiltered_base, align 8
  call void @bdrv_graph_rdunlock_main_loop()
  %16 = load ptr, ptr %unfiltered_bs_cow, align 8
  %tobool8 = icmp ne ptr %16, null
  br i1 %tobool8, label %if.then9, label %if.end25

if.then9:                                         ; preds = %if.end5
  store ptr null, ptr %base_id, align 8
  store ptr null, ptr %base_fmt, align 8
  %17 = load ptr, ptr %unfiltered_base, align 8
  %tobool10 = icmp ne ptr %17, null
  br i1 %tobool10, label %if.then11, label %if.end17

if.then11:                                        ; preds = %if.then9
  %18 = load ptr, ptr %s, align 8
  %backing_file_str = getelementptr inbounds %struct.StreamBlockJob, ptr %18, i32 0, i32 7
  %19 = load ptr, ptr %backing_file_str, align 8
  %tobool12 = icmp ne ptr %19, null
  br i1 %tobool12, label %cond.true, label %cond.false

cond.true:                                        ; preds = %if.then11
  br label %cond.end

cond.false:                                       ; preds = %if.then11
  %20 = load ptr, ptr %unfiltered_base, align 8
  %filename = getelementptr inbounds %struct.BlockDriverState, ptr %20, i32 0, i32 11
  %arraydecay = getelementptr inbounds [4096 x i8], ptr %filename, i64 0, i64 0
  br label %cond.end

cond.end:                                         ; preds = %cond.false, %cond.true
  %cond = phi ptr [ %19, %cond.true ], [ %arraydecay, %cond.false ]
  store ptr %cond, ptr %base_id, align 8
  %21 = load ptr, ptr %unfiltered_base, align 8
  %drv = getelementptr inbounds %struct.BlockDriverState, ptr %21, i32 0, i32 6
  %22 = load ptr, ptr %drv, align 8
  %tobool13 = icmp ne ptr %22, null
  br i1 %tobool13, label %if.then14, label %if.end16

if.then14:                                        ; preds = %cond.end
  %23 = load ptr, ptr %unfiltered_base, align 8
  %drv15 = getelementptr inbounds %struct.BlockDriverState, ptr %23, i32 0, i32 6
  %24 = load ptr, ptr %drv15, align 8
  %format_name = getelementptr inbounds %struct.BlockDriver, ptr %24, i32 0, i32 0
  %25 = load ptr, ptr %format_name, align 8
  store ptr %25, ptr %base_fmt, align 8
  br label %if.end16

if.end16:                                         ; preds = %if.then14, %cond.end
  br label %if.end17

if.end17:                                         ; preds = %if.end16, %if.then9
  %26 = load ptr, ptr %s, align 8
  %target_bs18 = getelementptr inbounds %struct.StreamBlockJob, ptr %26, i32 0, i32 5
  %27 = load ptr, ptr %target_bs18, align 8
  call void @bdrv_graph_wrlock(ptr noundef %27)
  %28 = load ptr, ptr %unfiltered_bs, align 8
  %29 = load ptr, ptr %base, align 8
  %call19 = call i32 @bdrv_set_backing_hd_drained(ptr noundef %28, ptr noundef %29, ptr noundef %local_err)
  %30 = load ptr, ptr %s, align 8
  %target_bs20 = getelementptr inbounds %struct.StreamBlockJob, ptr %30, i32 0, i32 5
  %31 = load ptr, ptr %target_bs20, align 8
  call void @bdrv_graph_wrunlock(ptr noundef %31)
  %32 = load ptr, ptr %unfiltered_bs, align 8
  %33 = load ptr, ptr %base_id, align 8
  %34 = load ptr, ptr %base_fmt, align 8
  %call21 = call i32 @bdrv_change_backing_file(ptr noundef %32, ptr noundef %33, ptr noundef %34, i1 noundef zeroext false)
  store i32 %call21, ptr %ret, align 4
  %35 = load ptr, ptr %local_err, align 8
  %tobool22 = icmp ne ptr %35, null
  br i1 %tobool22, label %if.then23, label %if.end24

if.then23:                                        ; preds = %if.end17
  %36 = load ptr, ptr %local_err, align 8
  call void @error_report_err(ptr noundef %36)
  store i32 -1, ptr %ret, align 4
  br label %out

if.end24:                                         ; preds = %if.end17
  br label %if.end25

if.end25:                                         ; preds = %if.end24, %if.end5
  br label %out

out:                                              ; preds = %if.end25, %if.then23
  %37 = load ptr, ptr %unfiltered_bs_cow, align 8
  %tobool26 = icmp ne ptr %37, null
  br i1 %tobool26, label %if.then27, label %if.end28

if.then27:                                        ; preds = %out
  %38 = load ptr, ptr %unfiltered_bs_cow, align 8
  call void @bdrv_drained_end(ptr noundef %38)
  %39 = load ptr, ptr %unfiltered_bs_cow, align 8
  call void @bdrv_unref(ptr noundef %39)
  br label %if.end28

if.end28:                                         ; preds = %if.then27, %out
  %40 = load ptr, ptr %unfiltered_bs, align 8
  call void @bdrv_drained_end(ptr noundef %40)
  %41 = load i32, ptr %ret, align 4
  ret i32 %41
}