; Function Attrs: nounwind sspstrong uwtable
define internal i32 @stream_prepare(ptr noundef captures(none) %job) #0 {
entry:
  %local_err = alloca ptr, align 8
  store ptr null, ptr %local_err, align 8
  %call = tail call zeroext i1 @qemu_in_main_thread() #5
  br i1 %call, label %do.end, label %if.else

if.else:                                          ; preds = %entry
  tail call void @__assert_fail(ptr noundef nonnull @.str, ptr noundef nonnull @.str.1, i32 noundef 63, ptr noundef nonnull @__PRETTY_FUNCTION__.stream_prepare) #6
  unreachable

do.end:                                           ; preds = %entry
  tail call void @bdrv_graph_rdlock_main_loop() #5
  %target_bs = getelementptr inbounds nuw i8, ptr %job, i64 552
  %0 = load ptr, ptr %target_bs, align 8
  %call1 = tail call ptr @bdrv_skip_filters(ptr noundef %0) #5
  %call.i = tail call ptr @bdrv_cow_child(ptr noundef %call1) #5
  %tobool.not.i.i = icmp eq ptr %call.i, null
  br i1 %tobool.not.i.i, label %bdrv_cow_bs.exit, label %cond.true.i.i

cond.true.i.i:                                    ; preds = %do.end
  %1 = load ptr, ptr %call.i, align 8
  br label %bdrv_cow_bs.exit

bdrv_cow_bs.exit:                                 ; preds = %do.end, %cond.true.i.i
  %cond.i.i = phi ptr [ %1, %cond.true.i.i ], [ null, %do.end ]
  tail call void @bdrv_graph_rdunlock_main_loop() #5
  %cor_filter_bs = getelementptr inbounds nuw i8, ptr %job, i64 544
  %2 = load ptr, ptr %cor_filter_bs, align 8
  tail call void @bdrv_cor_filter_drop(ptr noundef %2) #5
  store ptr null, ptr %cor_filter_bs, align 8
  tail call void @bdrv_drained_begin(ptr noundef %call1) #5
  %tobool.not = icmp eq ptr %cond.i.i, null
  br i1 %tobool.not, label %if.end5, label %if.then4

if.then4:                                         ; preds = %bdrv_cow_bs.exit
  tail call void @bdrv_ref(ptr noundef nonnull %cond.i.i) #5
  tail call void @bdrv_drained_begin(ptr noundef nonnull %cond.i.i) #5
  br label %if.end5

if.end5:                                          ; preds = %if.then4, %bdrv_cow_bs.exit
  tail call void @bdrv_graph_rdlock_main_loop() #5
  %above_base = getelementptr inbounds nuw i8, ptr %job, i64 536
  %3 = load ptr, ptr %above_base, align 8
  %call.i22 = tail call ptr @bdrv_filter_or_cow_child(ptr noundef %3) #5
  %tobool.not.i.i23 = icmp eq ptr %call.i22, null
  br i1 %tobool.not.i.i23, label %bdrv_filter_or_cow_bs.exit, label %cond.true.i.i24

cond.true.i.i24:                                  ; preds = %if.end5
  %4 = load ptr, ptr %call.i22, align 8
  br label %bdrv_filter_or_cow_bs.exit

bdrv_filter_or_cow_bs.exit:                       ; preds = %if.end5, %cond.true.i.i24
  %cond.i.i25 = phi ptr [ %4, %cond.true.i.i24 ], [ null, %if.end5 ]
  %call7 = tail call ptr @bdrv_skip_filters(ptr noundef %cond.i.i25) #5
  tail call void @bdrv_graph_rdunlock_main_loop() #5
  br i1 %tobool.not, label %if.end28, label %if.then9

if.then9:                                         ; preds = %bdrv_filter_or_cow_bs.exit
  %tobool10.not = icmp eq ptr %call7, null
  br i1 %tobool10.not, label %if.end17, label %if.then11

if.then11:                                        ; preds = %if.then9
  %backing_file_str = getelementptr inbounds nuw i8, ptr %job, i64 568
  %5 = load ptr, ptr %backing_file_str, align 8
  %tobool12.not = icmp eq ptr %5, null
  %filename = getelementptr inbounds nuw i8, ptr %call7, i64 49
  %cond = select i1 %tobool12.not, ptr %filename, ptr %5
  %drv = getelementptr inbounds nuw i8, ptr %call7, i64 16
  %6 = load ptr, ptr %drv, align 8
  %tobool13.not = icmp eq ptr %6, null
  br i1 %tobool13.not, label %if.end17, label %if.then14

if.then14:                                        ; preds = %if.then11
  %7 = load ptr, ptr %6, align 8
  br label %if.end17

if.end17:                                         ; preds = %if.then11, %if.then14, %if.then9
  %base_id.0 = phi ptr [ %cond, %if.then14 ], [ %cond, %if.then11 ], [ null, %if.then9 ]
  %base_fmt.0 = phi ptr [ %7, %if.then14 ], [ null, %if.then11 ], [ null, %if.then9 ]
  %8 = load ptr, ptr %target_bs, align 8
  tail call void @bdrv_graph_wrlock(ptr noundef %8) #5
  %call19 = call i32 @bdrv_set_backing_hd_drained(ptr noundef %call1, ptr noundef %cond.i.i25, ptr noundef nonnull %local_err) #5
  %9 = load ptr, ptr %target_bs, align 8
  call void @bdrv_graph_wrunlock(ptr noundef %9) #5
  %call21 = call i32 @bdrv_change_backing_file(ptr noundef %call1, ptr noundef %base_id.0, ptr noundef %base_fmt.0, i1 noundef zeroext false) #5
  %10 = load ptr, ptr %local_err, align 8
  %tobool22.not = icmp eq ptr %10, null
  br i1 %tobool22.not, label %if.then27, label %if.then23

if.then23:                                        ; preds = %if.end17
  call void @error_report_err(ptr noundef nonnull %10) #5
  br label %if.then27

if.then27:                                        ; preds = %if.end17, %if.then23
  %ret.0.ph = phi i32 [ %call21, %if.end17 ], [ -1, %if.then23 ]
  call void @bdrv_drained_end(ptr noundef nonnull %cond.i.i) #5
  call void @bdrv_unref(ptr noundef nonnull %cond.i.i) #5
  br label %if.end28

if.end28:                                         ; preds = %bdrv_filter_or_cow_bs.exit, %if.then27
  %ret.028 = phi i32 [ %ret.0.ph, %if.then27 ], [ 0, %bdrv_filter_or_cow_bs.exit ]
  call void @bdrv_drained_end(ptr noundef %call1) #5
  ret i32 %ret.028
}